ccopy_reg
_reconstructor
p0
(c__main__
NaivePolicy
p1
c__builtin__
object
p2
Ntp3
Rp4
(dp5
S's_g'
p6
cnumpy.core.multiarray
_reconstruct
p7
(cnumpy
ndarray
p8
(I0
tp9
S'b'
p10
tp11
Rp12
(I1
(I3
tp13
cnumpy
dtype
p14
(S'f8'
p15
I0
I1
tp16
Rp17
(I3
S'<'
p18
NNNI-1
I-1
I0
tp19
bI00
S'\xaeG\xe1z\x14\xae\x03@\x00\x00\x00\x00\x00\x00\x00\x00\x00\x00\x00\x00\x00\x00\x00\x00'
p20
tp21
bsb.