((lp0
(lp1
F1.5
aF4.5
aa(lp2
F2.5
aF3.5
aa(lp3
F3.5
aI2
aa(lp4
(lp5
(lp6
F0.0
aF3.25
aF1.0
aF2.75
aa(lp7
F2.25
aF3.25
aF1.0
aF2.75
aa(lp8
F1.0
aF5.25
aF1.25
aF0.75
aaa(lp9
(lp10
F-1.0
aF2.5
aF2.0
aF1.0
aa(lp11
F0.0
aF1.25
aF1.5
aF0.5
aaa(lp12
(lp13
F0.0
aF0.0
aF0.75
aF2.25
aa(lp14
F1.5
aF3.0
aF2.0
aF0.5
aa(lp15
F2.0
aF0.0
aF1.0
aF1.0
aaatp16
.